target datalayout = "e-m:e-p270:32:32-p271:32:32-p272:64:64-i64:64-i128:128-f80:128-n8:16:32:64-S128"
target triple = "x86_64-pc-linux-gnu"

@.str.23 = private unnamed_addr constant [31 x i8] c"../openssl/test/bioprinttest.c\00", align 1
@.str.24 = private unnamed_addr constant [62 x i8] c"BIO_snprintf(buf, sizeof(buf), \22%f\\n\22, 2 * (double)ULONG_MAX)\00", align 1
@.str.25 = private unnamed_addr constant [3 x i8] c"-1\00", align 1
@.str.26 = private unnamed_addr constant [4 x i8] c"%f\0A\00", align 1

; Function Attrs: nounwind uwtable
define internal i32 @test_big() #0 {
  %1 = alloca i32, align 4
  %2 = alloca [80 x i8], align 16
  %3 = alloca i32, align 4
  call void @llvm.lifetime.start.p0(i64 80, ptr %2) #4
  %4 = getelementptr inbounds [80 x i8], ptr %2, i64 0, i64 0
  %5 = call i32 (ptr, i64, ptr, ...) @BIO_snprintf(ptr noundef %4, i64 noundef 80, ptr noundef @.str.26, double noundef 0x4400000000000000)
  %6 = call i32 @test_int_eq(ptr noundef @.str.23, i32 noundef 249, ptr noundef @.str.24, ptr noundef @.str.25, i32 noundef %5, i32 noundef -1)
  %7 = icmp ne i32 %6, 0
  br i1 %7, label %9, label %8

8:                                                ; preds = %0
  store i32 0, ptr %1, align 4
  store i32 1, ptr %3, align 4
  br label %10

9:                                                ; preds = %0
  store i32 1, ptr %1, align 4
  store i32 1, ptr %3, align 4
  br label %10

10:                                               ; preds = %9, %8
  call void @llvm.lifetime.end.p0(i64 80, ptr %2) #4
  %11 = load i32, ptr %1, align 4
  ret i32 %11
}