; Function Attrs: nounwind uwtable
define internal range(i32 0, 2) i32 @test_big() #1 {
  %1 = alloca [80 x i8], align 16
  call void @llvm.lifetime.start.p0(i64 80, ptr nonnull %1) #9
  %2 = call i32 (ptr, i64, ptr, ...) @BIO_snprintf(ptr noundef nonnull %1, i64 noundef 80, ptr noundef nonnull @.str.26, double noundef 0x4400000000000000) #9
  %3 = call i32 @test_int_eq(ptr noundef nonnull @.str.23, i32 noundef 249, ptr noundef nonnull @.str.24, ptr noundef nonnull @.str.25, i32 noundef %2, i32 noundef -1) #9
  %.not = icmp ne i32 %3, 0
  %. = zext i1 %.not to i32
  call void @llvm.lifetime.end.p0(i64 80, ptr nonnull %1) #9
  ret i32 %.
}